Certificate:
    Data:
        Version: 3 (0x2)
        Serial Number: 2 (0x2)
        Signature Algorithm: sha256WithRSAEncryption
        Issuer: C=FR, ST=Radius, L=Somewhere, O=Example Inc./emailAddress=admin@example.org, CN=Example Certificate Authority
        Validity
            Not Before: Jan 31 12:59:49 2025 GMT
            Not After : Apr  1 12:59:49 2025 GMT
        Subject: C=FR, ST=Radius, O=Example Inc., CN=user@example.org/emailAddress=user@example.org
        Subject Public Key Info:
            Public Key Algorithm: rsaEncryption
                Public-Key: (2048 bit)
                Modulus:
                    00:d8:3a:d6:57:b9:df:5c:26:e7:65:4d:c8:1e:44:
                    97:10:1d:b4:15:cb:8f:fa:3e:92:0d:60:c8:9a:02:
                    61:33:6a:d7:7a:dd:db:16:f1:44:b8:f9:74:3a:55:
                    75:96:7b:3b:92:f6:d4:cc:4e:f7:59:13:aa:6b:68:
                    ab:6e:19:c2:6e:03:40:db:0f:73:9b:43:66:0d:38:
                    7e:f6:4d:e7:8d:16:d8:e1:79:d4:42:4c:dd:40:e9:
                    b4:1b:3a:9c:5d:bd:92:83:73:a7:e2:35:8a:e9:c9:
                    06:2b:2d:d8:dc:50:d8:e8:47:f3:c7:c7:ac:af:c7:
                    3e:f6:5c:25:a2:23:09:18:19:26:e9:13:e4:24:1e:
                    49:3d:fe:d4:91:cb:d1:68:43:5b:4c:88:cf:30:ec:
                    91:9f:63:0d:06:03:68:76:ac:c3:1d:a7:cb:93:f5:
                    8b:3a:ba:2e:76:06:4e:83:18:0b:9e:5e:ce:87:e9:
                    21:ff:8f:20:fb:bb:a8:ec:ad:58:c4:bb:51:d7:05:
                    89:95:3d:2b:4d:6c:6e:da:07:c7:d9:a0:1a:02:dd:
                    f9:c6:26:66:f3:3b:ec:16:cc:7b:91:b5:5c:6d:90:
                    8c:cc:ac:ad:8b:57:f7:00:61:d2:5e:43:bc:f0:11:
                    61:19:bd:36:6c:b1:68:0b:81:6c:86:49:1e:3a:75:
                    fe:63
                Exponent: 65537 (0x10001)
        X509v3 extensions:
            X509v3 Extended Key Usage: 
                TLS Web Client Authentication
            X509v3 CRL Distribution Points: 
                Full Name:
                  URI:http://www.example.com/example_ca.crl
            X509v3 Subject Key Identifier: 
                1A:D7:E6:A1:6E:BE:70:85:DD:A6:F2:7A:0D:45:E9:E5:16:A4:93:B3
            X509v3 Authority Key Identifier: 
                37:BC:DF:1A:84:D8:CB:D0:69:EF:03:4F:62:AF:30:58:8E:6D:16:B7
    Signature Algorithm: sha256WithRSAEncryption
    Signature Value:
        54:d5:27:43:d4:b6:98:7c:c0:e8:a4:f6:06:c0:72:56:93:97:
        4a:ac:dd:cf:0a:8d:04:6b:41:1f:d7:43:1a:c1:0c:eb:4d:c1:
        2b:f9:50:f0:9c:b8:90:e1:e0:1b:bb:e3:bd:f1:d8:be:a9:a9:
        67:52:da:2b:f5:b3:2d:12:c6:b6:f1:17:84:79:01:3f:90:7c:
        d2:f6:4e:6e:27:20:7c:64:a7:4f:5d:40:83:b7:61:8a:b5:a3:
        3f:cb:4e:94:49:ce:2a:25:9d:9a:82:bc:c2:17:3d:60:0e:1a:
        42:fd:dc:a3:02:d9:52:85:ab:55:18:b4:df:d7:9e:c2:f1:d7:
        ef:69:f0:59:96:f9:d4:4f:33:ae:d1:7c:1e:9f:d6:07:db:34:
        e5:34:59:ba:c2:f2:bd:b3:fd:06:3e:66:7d:b7:78:7b:b2:05:
        76:61:af:b5:19:e2:fd:0d:3e:6a:c2:a0:5e:dc:12:7a:56:34:
        49:36:3b:85:9f:6c:f9:dc:4f:30:b4:b1:e0:be:08:c2:67:7d:
        8d:fd:65:41:ba:e9:43:19:7c:d6:24:1e:5b:62:08:7a:86:3d:
        d9:5c:b3:2a:87:b0:60:01:7c:be:c6:23:62:27:4b:23:0a:14:
        99:d5:32:63:8a:49:b2:41:f4:bd:9b:0f:4c:43:ea:83:8c:90:
        32:4c:dd:ff
-----BEGIN CERTIFICATE-----
MIIEETCCAvmgAwIBAgIBAjANBgkqhkiG9w0BAQsFADCBkzELMAkGA1UEBhMCRlIx
DzANBgNVBAgMBlJhZGl1czESMBAGA1UEBwwJU29tZXdoZXJlMRUwEwYDVQQKDAxF
eGFtcGxlIEluYy4xIDAeBgkqhkiG9w0BCQEWEWFkbWluQGV4YW1wbGUub3JnMSYw
JAYDVQQDDB1FeGFtcGxlIENlcnRpZmljYXRlIEF1dGhvcml0eTAeFw0yNTAxMzEx
MjU5NDlaFw0yNTA0MDExMjU5NDlaMHExCzAJBgNVBAYTAkZSMQ8wDQYDVQQIDAZS
YWRpdXMxFTATBgNVBAoMDEV4YW1wbGUgSW5jLjEZMBcGA1UEAwwQdXNlckBleGFt
cGxlLm9yZzEfMB0GCSqGSIb3DQEJARYQdXNlckBleGFtcGxlLm9yZzCCASIwDQYJ
KoZIhvcNAQEBBQADggEPADCCAQoCggEBANg61le531wm52VNyB5ElxAdtBXLj/o+
kg1gyJoCYTNq13rd2xbxRLj5dDpVdZZ7O5L21MxO91kTqmtoq24Zwm4DQNsPc5tD
Zg04fvZN540W2OF51EJM3UDptBs6nF29koNzp+I1iunJBist2NxQ2OhH88fHrK/H
PvZcJaIjCRgZJukT5CQeST3+1JHL0WhDW0yIzzDskZ9jDQYDaHaswx2ny5P1izq6
LnYGToMYC55ezofpIf+PIPu7qOytWMS7UdcFiZU9K01sbtoHx9mgGgLd+cYmZvM7
7BbMe5G1XG2QjMysrYtX9wBh0l5DvPARYRm9NmyxaAuBbIZJHjp1/mMCAwEAAaOB
kDCBjTATBgNVHSUEDDAKBggrBgEFBQcDAjA2BgNVHR8ELzAtMCugKaAnhiVodHRw
Oi8vd3d3LmV4YW1wbGUuY29tL2V4YW1wbGVfY2EuY3JsMB0GA1UdDgQWBBQa1+ah
br5whd2m8noNRenlFqSTszAfBgNVHSMEGDAWgBQ3vN8ahNjL0GnvA09irzBYjm0W
tzANBgkqhkiG9w0BAQsFAAOCAQEAVNUnQ9S2mHzA6KT2BsByVpOXSqzdzwqNBGtB
H9dDGsEM603BK/lQ8Jy4kOHgG7vjvfHYvqmpZ1LaK/WzLRLGtvEXhHkBP5B80vZO
bicgfGSnT11Ag7dhirWjP8tOlEnOKiWdmoK8whc9YA4aQv3cowLZUoWrVRi039ee
wvHX72nwWZb51E8zrtF8Hp/WB9s05TRZusLyvbP9Bj5mfbd4e7IFdmGvtRni/Q0+
asKgXtwSelY0STY7hZ9s+dxPMLSx4L4Iwmd9jf1lQbrpQxl81iQeW2IIeoY92Vyz
KoewYAF8vsYjYidLIwoUmdUyY4pJskH0vZsPTEPqg4yQMkzd/w==
-----END CERTIFICATE-----
